Certificate:
    Data:
        Version: 3 (0x2)
        Serial Number: 1 (0x1)
    Signature Algorithm: sha256WithRSAEncryption
        Issuer: C=CN, ST=Shanxi, L=Taiyuan, O=WDNMD, OU=NaoBuQing, CN=WDNMD CA/name=server/emailAddress=19950529zz@gmail.com
        Validity
            Not Before: Dec  4 15:18:38 2019 GMT
            Not After : Dec  1 15:18:38 2029 GMT
        Subject: C=CN, ST=Shanxi, L=Taiyuan, O=WDNMD, OU=NaoBuQing, CN=server/name=server/emailAddress=19950529zz@gmail.com
        Subject Public Key Info:
            Public Key Algorithm: rsaEncryption
                Public-Key: (2048 bit)
                Modulus:
                    00:9c:30:10:67:ca:65:c4:05:50:2e:28:4b:6b:2d:
                    73:53:47:96:db:c3:ad:b5:52:21:42:45:d1:77:a6:
                    c6:88:c2:1c:c7:64:d4:b2:b1:a0:5b:bf:84:3f:f3:
                    f3:3e:61:c8:b8:e3:7d:24:a4:58:14:cc:51:de:f6:
                    63:45:58:6c:cd:56:bb:fd:11:ec:8b:c4:56:d7:3f:
                    f3:02:68:46:07:53:e3:cc:f4:c7:a7:63:83:79:cf:
                    d5:02:c7:95:57:51:e7:ce:c2:7a:44:65:b2:26:64:
                    80:dc:9d:0f:f1:88:96:8f:44:ee:8c:68:ef:db:fe:
                    92:5c:d3:26:91:91:8d:19:87:5e:4d:2e:44:bb:80:
                    f3:e7:a4:4f:40:91:51:32:d0:a7:d5:f1:aa:2d:a2:
                    2f:29:18:d0:ae:74:93:3e:e1:c6:42:60:e4:39:b2:
                    aa:91:1b:4a:ab:95:5b:5c:a1:ad:a0:5b:56:ff:96:
                    ea:9b:e7:6b:33:94:3f:38:a3:f6:c5:b5:47:54:09:
                    b6:30:f1:33:94:5e:1c:fe:4c:f0:7c:51:a9:35:b9:
                    58:45:c9:7b:2c:e5:75:89:8b:e0:87:69:f3:48:88:
                    49:31:4b:68:c4:87:06:b1:6b:23:ba:01:32:9e:35:
                    96:54:04:20:0b:1e:41:cb:80:79:0f:86:55:cb:97:
                    7a:43
                Exponent: 65537 (0x10001)
        X509v3 extensions:
            X509v3 Basic Constraints: 
                CA:FALSE
            Netscape Cert Type: 
                SSL Server
            Netscape Comment: 
                Easy-RSA Generated Server Certificate
            X509v3 Subject Key Identifier: 
                CA:E2:71:9E:32:D8:B2:63:48:6B:BA:F0:37:83:05:8A:88:24:F3:FB
            X509v3 Authority Key Identifier: 
                keyid:92:47:C4:9A:A0:9B:6D:28:EA:BB:19:C6:D7:88:1D:BE:71:9B:B1:79
                DirName:/C=CN/ST=Shanxi/L=Taiyuan/O=WDNMD/OU=NaoBuQing/CN=WDNMD CA/name=server/emailAddress=19950529zz@gmail.com
                serial:82:68:9B:99:C4:EA:EE:57

            X509v3 Extended Key Usage: 
                TLS Web Server Authentication
            X509v3 Key Usage: 
                Digital Signature, Key Encipherment
            X509v3 Subject Alternative Name: 
                DNS:server
    Signature Algorithm: sha256WithRSAEncryption
         b3:39:a2:02:0b:45:4d:5b:8e:bc:00:77:68:0d:01:5b:15:41:
         62:d8:8b:16:99:5e:7e:b5:27:00:56:aa:90:1c:fc:06:17:b0:
         bd:23:41:f5:ac:61:64:3a:10:c1:d0:1b:f1:66:a0:3c:7a:45:
         aa:2f:0d:38:9a:03:f7:1e:d1:da:ab:55:0a:3b:9b:e0:fd:a7:
         c0:e6:2c:ff:79:06:94:3c:cb:e1:77:7c:49:8a:19:87:ab:c7:
         5a:ce:eb:e2:b8:86:97:56:47:57:7c:25:7e:e7:d9:04:3b:59:
         2d:ee:7f:97:c5:fa:ac:4a:0c:27:7b:42:1c:1b:6f:55:15:29:
         1d:e7:50:1a:86:7a:be:3e:67:e7:c1:81:48:b1:ec:07:3c:bf:
         2e:2c:96:cf:4d:68:39:9c:7a:d5:fb:79:17:82:10:11:bc:b4:
         2e:b8:99:70:f4:7c:f6:03:f8:10:b8:72:43:79:e2:7b:be:8f:
         a3:a6:9d:d5:aa:09:b0:5f:4d:01:7a:e8:03:c5:04:f3:95:de:
         61:22:cb:ee:4a:67:26:75:7d:aa:18:66:29:fa:61:55:cd:ea:
         55:e7:89:6e:e3:8a:11:66:39:25:d0:93:b1:c9:b9:5d:77:00:
         12:66:04:a0:c4:36:eb:23:12:6b:fb:4a:51:ca:e6:3f:4e:c0:
         00:9d:33:f2
-----BEGIN CERTIFICATE-----
MIIFODCCBCCgAwIBAgIBATANBgkqhkiG9w0BAQsFADCBnTELMAkGA1UEBhMCQ04x
DzANBgNVBAgTBlNoYW54aTEQMA4GA1UEBxMHVGFpeXVhbjEOMAwGA1UEChMFV0RO
TUQxEjAQBgNVBAsTCU5hb0J1UWluZzERMA8GA1UEAxMIV0ROTUQgQ0ExDzANBgNV
BCkTBnNlcnZlcjEjMCEGCSqGSIb3DQEJARYUMTk5NTA1Mjl6ekBnbWFpbC5jb20w
HhcNMTkxMjA0MTUxODM4WhcNMjkxMjAxMTUxODM4WjCBmzELMAkGA1UEBhMCQ04x
DzANBgNVBAgTBlNoYW54aTEQMA4GA1UEBxMHVGFpeXVhbjEOMAwGA1UEChMFV0RO
TUQxEjAQBgNVBAsTCU5hb0J1UWluZzEPMA0GA1UEAxMGc2VydmVyMQ8wDQYDVQQp
EwZzZXJ2ZXIxIzAhBgkqhkiG9w0BCQEWFDE5OTUwNTI5enpAZ21haWwuY29tMIIB
IjANBgkqhkiG9w0BAQEFAAOCAQ8AMIIBCgKCAQEAnDAQZ8plxAVQLihLay1zU0eW
28OttVIhQkXRd6bGiMIcx2TUsrGgW7+EP/PzPmHIuON9JKRYFMxR3vZjRVhszVa7
/RHsi8RW1z/zAmhGB1PjzPTHp2ODec/VAseVV1HnzsJ6RGWyJmSA3J0P8YiWj0Tu
jGjv2/6SXNMmkZGNGYdeTS5Eu4Dz56RPQJFRMtCn1fGqLaIvKRjQrnSTPuHGQmDk
ObKqkRtKq5VbXKGtoFtW/5bqm+drM5Q/OKP2xbVHVAm2MPEzlF4c/kzwfFGpNblY
Rcl7LOV1iYvgh2nzSIhJMUtoxIcGsWsjugEynjWWVAQgCx5By4B5D4ZVy5d6QwID
AQABo4IBgTCCAX0wCQYDVR0TBAIwADARBglghkgBhvhCAQEEBAMCBkAwNAYJYIZI
AYb4QgENBCcWJUVhc3ktUlNBIEdlbmVyYXRlZCBTZXJ2ZXIgQ2VydGlmaWNhdGUw
HQYDVR0OBBYEFMricZ4y2LJjSGu68DeDBYqIJPP7MIHSBgNVHSMEgcowgceAFJJH
xJqgm20o6rsZxteIHb5xm7F5oYGjpIGgMIGdMQswCQYDVQQGEwJDTjEPMA0GA1UE
CBMGU2hhbnhpMRAwDgYDVQQHEwdUYWl5dWFuMQ4wDAYDVQQKEwVXRE5NRDESMBAG
A1UECxMJTmFvQnVRaW5nMREwDwYDVQQDEwhXRE5NRCBDQTEPMA0GA1UEKRMGc2Vy
dmVyMSMwIQYJKoZIhvcNAQkBFhQxOTk1MDUyOXp6QGdtYWlsLmNvbYIJAIJom5nE
6u5XMBMGA1UdJQQMMAoGCCsGAQUFBwMBMAsGA1UdDwQEAwIFoDARBgNVHREECjAI
ggZzZXJ2ZXIwDQYJKoZIhvcNAQELBQADggEBALM5ogILRU1bjrwAd2gNAVsVQWLY
ixaZXn61JwBWqpAc/AYXsL0jQfWsYWQ6EMHQG/FmoDx6RaovDTiaA/ce0dqrVQo7
m+D9p8DmLP95BpQ8y+F3fEmKGYerx1rO6+K4hpdWR1d8JX7n2QQ7WS3uf5fF+qxK
DCd7Qhwbb1UVKR3nUBqGer4+Z+fBgUix7Ac8vy4sls9NaDmcetX7eReCEBG8tC64
mXD0fPYD+BC4ckN54nu+j6OmndWqCbBfTQF66APFBPOV3mEiy+5KZyZ1faoYZin6
YVXN6lXniW7jihFmOSXQk7HJuV13ABJmBKDENusjEmv7SlHK5j9OwACdM/I=
-----END CERTIFICATE-----
